(lp0
(lp1
a(lp2
a(lp3
a(lp4
I8
aa(lp5
I5
aa(lp6
I4
aa(lp7
a(lp8
I8
aa(lp9
I5
aa(lp10
I2
aa(lp11
I4
aa(lp12
a(lp13
I2
aa(lp14
a(lp15
I6
aa(lp16
a(lp17
I1
aa(lp18
I1
aa(lp19
I1
aa(lp20
I4
aa(lp21
I7
aa(lp22
I1
aa(lp23
I4
aa(lp24
I2
aa(lp25
I7
aa(lp26
I2
aa(lp27
I7
aa(lp28
I4
aa(lp29
I4
aa(lp30
I8
aa(lp31
I0
aa(lp32
I6
aa(lp33
I0
aa(lp34
I4
aa(lp35
I8
aa(lp36
a(lp37
I5
aa(lp38
a(lp39
I0
aa(lp40
I1
aa(lp41
I7
aa(lp42
I3
aa(lp43
I7
aa(lp44
a(lp45
I5
aa(lp46
I2
aa(lp47
I4
aa(lp48
I4
aa(lp49
I1
aa(lp50
a(lp51
I1
aa(lp52
I8
aa(lp53
a(lp54
I5
aa(lp55
a(lp56
I6
aa(lp57
a(lp58
I3
aa(lp59
I7
aa(lp60
a(lp61
I4
aa(lp62
a(lp63
I5
aa(lp64
a(lp65
a(lp66
a(lp67
I5
aa(lp68
I6
aa(lp69
I2
aa(lp70
a(lp71
a(lp72
I1
aa(lp73
I4
aa(lp74
a(lp75
I0
aa(lp76
I4
aa(lp77
a(lp78
I2
aa(lp79
I2
aa(lp80
a(lp81
I7
aa(lp82
I8
aa(lp83
a(lp84
I1
aa(lp85
a(lp86
a(lp87
I8
aa(lp88
I0
aa(lp89
I4
aa(lp90
I7
aa(lp91
I2
aa(lp92
a(lp93
I2
aa(lp94
I9
aa(lp95
I8
aa(lp96
I8
aa(lp97
I8
aa(lp98
I4
aa(lp99
I0
aa(lp100
I7
aa(lp101
a(lp102
I1
aa(lp103
I1
aa(lp104
I9
aa(lp105
I0
aa(lp106
I7
aa(lp107
I2
aa(lp108
I9
aa(lp109
a(lp110
a(lp111
I9
aa(lp112
I6
aa(lp113
I8
aa(lp114
I3
aa(lp115
I7
aa(lp116
I1
aa(lp117
I8
aa(lp118
I4
aa(lp119
I4
aa(lp120
I1
aa(lp121
a(lp122
I1
aa(lp123
I8
aa(lp124
I0
aa(lp125
I8
aa(lp126
I5
aa(lp127
a(lp128
I1
aa(lp129
I1
aa(lp130
I5
aa(lp131
I6
aa(lp132
I4
aa(lp133
I5
aa(lp134
I3
aa(lp135
I4
aa(lp136
I1
aa(lp137
I4
aa(lp138
I1
aa(lp139
I2
aa(lp140
I6
aa(lp141
I4
aa(lp142
I2
aa(lp143
I2
aa(lp144
I9
aa(lp145
a(lp146
a(lp147
a(lp148
I4
aa(lp149
I4
aa(lp150
I4
aa(lp151
I8
aa(lp152
a(lp153
a(lp154
I5
aa(lp155
I8
aa(lp156
a(lp157
a(lp158
I1
aa(lp159
I2
aa(lp160
I8
aa(lp161
I2
aa(lp162
I6
aa(lp163
I6
aa(lp164
I8
aa(lp165
I1
aa(lp166
I6
aa(lp167
a(lp168
I2
aa(lp169
I2
aa(lp170
I2
aa(lp171
I3
aa(lp172
I0
aa(lp173
a(lp174
I2
aa(lp175
I1
aa(lp176
I6
aa(lp177
I0
aa(lp178
a(lp179
a(lp180
a(lp181
I2
aa(lp182
I5
aa(lp183
I7
aa(lp184
I1
aa(lp185
a(lp186
I4
aa(lp187
I8
aa(lp188
I5
aa(lp189
I1
aa(lp190
a(lp191
a(lp192
a(lp193
I2
aa(lp194
a(lp195
I2
aa(lp196
I8
aa(lp197
a(lp198
a(lp199
I4
aa(lp200
I1
aa(lp201
a(lp202
a(lp203
I8
aa(lp204
I1
aa(lp205
I9
aa(lp206
I5
aa(lp207
I5
aa(lp208
I2
aa(lp209
I2
aa(lp210
I1
aa(lp211
I2
aa(lp212
a(lp213
I7
aa(lp214
a(lp215
a(lp216
I9
aa(lp217
I8
aa(lp218
I5
aa(lp219
I4
aa(lp220
I1
aa(lp221
I6
aa(lp222
I5
aa(lp223
a(lp224
I7
aa(lp225
a(lp226
I5
aa(lp227
a(lp228
I1
aa(lp229
I1
aa(lp230
I4
aa(lp231
I5
aa(lp232
I1
aa(lp233
I0
aa(lp234
I5
aa(lp235
I8
aa(lp236
a(lp237
I8
aa(lp238
a(lp239
I4
aa(lp240
a(lp241
I9
aa(lp242
I8
aa(lp243
I4
aa(lp244
I4
aa(lp245
I2
aa(lp246
I7
aa(lp247
I0
aa(lp248
I0
aa(lp249
I1
aa(lp250
I1
aa(lp251
I4
aa(lp252
I4
aa(lp253
I1
aa(lp254
I3
aa(lp255
I6
aa(lp256
a(lp257
I1
aa(lp258
I4
aa(lp259
I7
aa(lp260
I0
aa(lp261
a(lp262
I7
aa(lp263
I2
aa(lp264
I9
aa(lp265
I8
aa(lp266
a(lp267
a(lp268
I1
aa(lp269
a(lp270
I1
aa(lp271
a(lp272
a(lp273
I5
aa(lp274
I6
aa(lp275
a(lp276
I4
aa(lp277
I3
aa(lp278
I2
aa(lp279
I7
aa(lp280
I7
aa(lp281
I7
aa(lp282
I4
aa(lp283
I6
aa(lp284
I4
aa(lp285
I2
aa(lp286
a(lp287
a(lp288
I3
aa(lp289
I5
aa(lp290
I7
aa(lp291
a(lp292
I7
aa(lp293
I1
aa(lp294
I6
aa(lp295
a(lp296
I3
aa(lp297
I1
aa(lp298
I7
aa(lp299
a(lp300
I2
aa(lp301
I4
aa(lp302
I1
aa(lp303
a(lp304
I8
aa(lp305
I5
aa(lp306
I4
aa(lp307
I2
aa(lp308
a(lp309
I9
aa(lp310
I1
aa(lp311
a(lp312
I7
aa(lp313
I1
aa(lp314
I4
aa(lp315
a(lp316
I5
aa(lp317
I8
aa(lp318
I1
aa(lp319
I1
aa(lp320
I2
aa(lp321
I4
aa(lp322
I7
aa(lp323
a(lp324
I6
aa(lp325
I2
aa(lp326
a(lp327
I1
aa(lp328
I9
aa(lp329
a(lp330
I7
aa(lp331
a(lp332
I2
aa(lp333
a(lp334
I4
aa(lp335
a(lp336
I3
aa(lp337
a(lp338
a(lp339
I7
aa(lp340
I9
aa(lp341
I8
aa(lp342
I8
aa(lp343
a(lp344
I4
aa(lp345
I4
aa(lp346
a(lp347
a(lp348
I7
aa(lp349
I5
aa(lp350
I6
aa(lp351
I1
aa(lp352
I1
aa(lp353
a(lp354
I9
aa(lp355
I4
aa(lp356
I6
aa(lp357
I4
aa(lp358
a(lp359
a(lp360
I6
aa(lp361
a(lp362
I1
aa(lp363
I4
aa(lp364
I8
aa(lp365
I8
aa(lp366
I6
aa(lp367
I5
aa(lp368
a(lp369
a(lp370
a(lp371
I6
aa(lp372
I6
aa(lp373
I5
aa(lp374
I2
aa(lp375
I6
aa(lp376
I3
aa(lp377
I3
aa(lp378
I4
aa(lp379
I8
aa(lp380
I0
aa(lp381
a(lp382
I8
aa(lp383
I4
aa(lp384
I2
aa(lp385
a(lp386
a(lp387
a(lp388
a(lp389
a(lp390
I7
aa(lp391
a(lp392
I7
aa(lp393
I2
aa(lp394
I1
aa(lp395
I4
aa(lp396
I6
aa(lp397
I4
aa(lp398
a(lp399
I6
aa(lp400
I1
aa(lp401
I0
aa(lp402
I4
aa(lp403
a(lp404
a(lp405
I0
aa(lp406
I4
aa(lp407
I1
aa(lp408
a(lp409
a(lp410
I2
aa(lp411
I2
aa(lp412
a(lp413
I7
aa(lp414
I3
aa(lp415
a(lp416
a(lp417
a(lp418
I2
aa(lp419
a(lp420
a(lp421
I6
aa(lp422
I1
aa(lp423
I1
aa(lp424
a(lp425
a(lp426
I5
aa(lp427
I6
aa(lp428
I4
aa(lp429
a(lp430
I5
aa(lp431
I7
aa(lp432
I4
aa(lp433
I4
aa(lp434
I8
aa(lp435
I6
aa(lp436
a(lp437
I7
aa(lp438
a(lp439
I6
aa(lp440
a(lp441
I2
aa(lp442
I1
aa(lp443
I6
aa(lp444
I3
aa(lp445
I8
aa(lp446
a(lp447
a(lp448
I2
aa(lp449
a(lp450
a(lp451
I1
aa(lp452
a(lp453
I9
aa(lp454
I4
aa(lp455
a(lp456
I8
aa(lp457
I4
aa(lp458
I8
aa(lp459
I8
aa(lp460
a(lp461
I1
aa(lp462
a(lp463
I9
aa(lp464
I2
aa(lp465
I6
aa(lp466
I8
aa(lp467
I4
aa(lp468
I7
aa(lp469
I4
aa(lp470
I2
aa(lp471
I6
aa(lp472
I2
aa(lp473
I5
aa(lp474
a(lp475
I7
aa(lp476
I2
aa(lp477
I6
aa(lp478
I8
aa(lp479
a(lp480
I4
aa(lp481
I2
aa(lp482
a(lp483
I1
aa(lp484
I1
aa(lp485
a(lp486
a(lp487
I2
aa(lp488
a(lp489
a(lp490
I1
aa(lp491
a(lp492
I1
aa(lp493
I9
aa(lp494
a(lp495
I1
aa(lp496
a(lp497
a(lp498
I0
aa(lp499
I7
aa(lp500
a(lp501
I4
aa(lp502
I6
aa(lp503
a(lp504
a(lp505
I0
aa(lp506
I4
aa(lp507
I1
aa(lp508
I6
aa(lp509
I8
aa(lp510
a(lp511
I0
aa(lp512
I7
aa(lp513
I7
aa(lp514
I6
aa(lp515
I6
aa(lp516
a(lp517
I4
aa(lp518
a(lp519
a(lp520
I3
aa(lp521
I6
aa(lp522
I8
aa(lp523
I9
aa(lp524
I4
aa(lp525
a(lp526
a(lp527
a(lp528
a(lp529
I7
aa(lp530
a(lp531
I4
aa(lp532
a(lp533
I9
aa(lp534
I6
aa(lp535
I6
aa(lp536
I9
aa(lp537
a(lp538
I8
aa(lp539
I0
aa(lp540
a(lp541
I9
aa(lp542
a(lp543
I9
aa(lp544
I7
aa(lp545
I4
aa(lp546
I5
aa(lp547
I6
aa(lp548
I5
aa(lp549
I4
aa(lp550
a(lp551
a(lp552
I2
aa(lp553
I6
aa(lp554
a(lp555
I2
aa(lp556
a(lp557
I7
aa(lp558
I9
aa(lp559
I8
aa(lp560
I8
aa(lp561
I2
aa(lp562
I1
aa(lp563
a(lp564
I4
aa(lp565
I2
aa(lp566
I1
aa(lp567
I7
aa(lp568
a(lp569
I7
aa(lp570
a(lp571
I2
aa(lp572
a(lp573
I4
aa(lp574
a(lp575
a(lp576
a(lp577
I6
aa(lp578
a(lp579
I1
aa(lp580
I5
aa(lp581
I3
aa(lp582
a(lp583
a(lp584
a(lp585
a(lp586
I7
aa(lp587
I4
aa(lp588
I4
aa(lp589
I4
aa(lp590
I5
aa(lp591
I1
aa(lp592
I1
aa(lp593
a(lp594
a(lp595
a(lp596
I4
aa(lp597
I8
aa(lp598
a(lp599
I3
aa(lp600
I8
aa(lp601
I4
aa(lp602
I7
aa(lp603
I1
aa(lp604
I1
aa(lp605
I8
aa(lp606
I0
aa(lp607
I8
aa(lp608
I1
aa(lp609
I2
aa(lp610
I4
aa(lp611
I7
aa(lp612
I8
aa(lp613
I2
aa(lp614
a(lp615
I5
aa(lp616
I9
aa(lp617
I7
aa(lp618
a(lp619
a(lp620
I1
aa(lp621
I8
aa(lp622
I0
aa(lp623
I8
aa(lp624
I7
aa(lp625
I2
aa(lp626
I0
aa(lp627
I2
aa(lp628
a(lp629
I6
aa(lp630
I4
aa(lp631
a(lp632
I8
aa(lp633
I8
aa(lp634
I9
aa(lp635
a(lp636
I2
aa(lp637
a(lp638
a(lp639
I7
aa(lp640
I2
aa(lp641
I2
aa(lp642
a(lp643
a(lp644
I1
aa(lp645
a(lp646
I0
aa(lp647
I1
aa(lp648
I7
aa(lp649
I2
aa(lp650
a(lp651
I9
aa(lp652
I4
aa(lp653
a(lp654
I5
aa(lp655
a(lp656
I1
aa(lp657
a(lp658
I1
aa(lp659
I2
aa(lp660
a(lp661
I2
aa(lp662
I8
aa(lp663
a(lp664
I0
aa(lp665
I6
aa(lp666
I7
aa(lp667
I2
aa(lp668
I7
aa(lp669
I7
aa(lp670
I4
aa(lp671
a(lp672
I5
aa(lp673
a(lp674
a(lp675
a(lp676
a(lp677
I8
aa(lp678
I9
aa(lp679
I1
aa(lp680
I6
aa(lp681
I7
aa(lp682
I4
aa(lp683
I6
aa(lp684
I6
aa(lp685
a(lp686
a(lp687
a(lp688
I4
aa(lp689
a(lp690
I1
aa(lp691
a(lp692
I2
aa(lp693
a(lp694
I7
aa(lp695
I2
aa(lp696
a(lp697
I6
aa(lp698
a(lp699
I0
aa(lp700
I4
aa(lp701
I7
aa(lp702
a(lp703
I8
aa(lp704
a(lp705
I7
aa(lp706
I5
aa(lp707
I2
aa(lp708
a(lp709
I4
aa(lp710
I7
aa(lp711
I6
aa(lp712
I4
aa(lp713
a(lp714
I4
aa(lp715
I3
aa(lp716
I0
aa(lp717
I7
aa(lp718
I4
aa(lp719
I5
aa(lp720
a(lp721
I8
aa(lp722
I2
aa(lp723
I5
aa(lp724
I4
aa(lp725
I2
aa(lp726
a(lp727
I3
aa(lp728
a(lp729
I1
aa(lp730
I3
aa(lp731
I4
aa(lp732
a(lp733
I4
aa(lp734
a(lp735
a(lp736
I9
aa(lp737
a(lp738
I1
aa(lp739
I3
aa(lp740
a(lp741
I5
aa(lp742
I3
aa(lp743
a(lp744
I2
aa(lp745
I4
aa(lp746
I6
aa(lp747
a(lp748
I1
aa(lp749
a(lp750
I7
aa(lp751
a(lp752
a(lp753
a(lp754
a(lp755
I7
aa(lp756
I6
aa(lp757
I4
aa(lp758
I7
aa(lp759
I7
aa(lp760
a(lp761
a(lp762
I8
aa(lp763
I4
aa(lp764
I4
aa(lp765
I4
aa(lp766
I1
aa(lp767
I1
aa(lp768
a(lp769
I1
aa(lp770
I8
aa(lp771
a(lp772
I3
aa(lp773
I7
aa(lp774
I6
aa(lp775
I6
aa(lp776
I7
aa(lp777
I3
aa(lp778
I6
aa(lp779
I0
aa(lp780
a(lp781
a(lp782
a(lp783
I9
aa(lp784
I6
aa(lp785
I7
aa(lp786
a(lp787
a(lp788
I6
aa(lp789
I6
aa(lp790
a(lp791
a(lp792
I3
aa(lp793
I6
aa(lp794
I7
aa(lp795
I2
aa(lp796
a(lp797
a(lp798
a(lp799
I1
aa(lp800
I6
aa(lp801
I6
aa(lp802
a(lp803
I2
aa(lp804
a(lp805
a(lp806
I4
aa(lp807
a(lp808
a(lp809
I4
aa(lp810
I2
aa(lp811
I7
aa(lp812
a(lp813
a(lp814
I1
aa(lp815
a(lp816
I3
aa(lp817
I8
aa(lp818
a(lp819
I3
aa(lp820
a(lp821
I7
aa(lp822
I8
aa(lp823
a(lp824
I2
aa(lp825
I8
aa(lp826
I4
aa(lp827
a(lp828
I2
aa(lp829
I1
aa(lp830
I3
aa(lp831
a(lp832
I6
aa(lp833
I2
aa(lp834
a(lp835
a(lp836
I6
aa(lp837
I1
aa(lp838
a(lp839
I1
aa(lp840
I6
aa(lp841
I2
aa(lp842
I2
aa(lp843
a(lp844
a(lp845
I2
aa(lp846
a(lp847
I2
aa(lp848
I2
aa(lp849
a(lp850
I1
aa(lp851
a(lp852
a(lp853
a(lp854
a(lp855
I1
aa(lp856
I2
aa(lp857
I1
aa(lp858
I1
aa(lp859
a(lp860
a(lp861
I3
aa(lp862
I1
aa(lp863
I7
aa(lp864
a(lp865
I0
aa(lp866
I2
aa(lp867
I3
aa(lp868
I8
aa(lp869
I7
aa(lp870
I7
aa(lp871
a(lp872
a(lp873
I2
aa(lp874
a(lp875
I3
aa(lp876
I5
aa(lp877
a(lp878
I5
aa(lp879
a(lp880
I8
aa(lp881
I5
aa(lp882
I7
aa(lp883
a(lp884
I6
aa(lp885
I1
aa(lp886
I7
aa(lp887
I0
aa(lp888
I6
aa(lp889
I1
aa(lp890
I4
aa(lp891
I6
aa(lp892
a(lp893
a(lp894
I4
aa(lp895
I1
aa(lp896
I1
aa(lp897
I7
aa(lp898
a(lp899
a(lp900
I1
aa(lp901
I2
aa(lp902
I6
aa(lp903
I6
aa(lp904
a(lp905
I3
aa(lp906
I8
aa(lp907
I6
aa(lp908
I7
aa(lp909
I7
aa(lp910
I8
aa(lp911
I3
aa(lp912
a(lp913
I6
aa(lp914
I2
aa(lp915
a(lp916
I8
aa(lp917
I2
aa(lp918
I6
aa(lp919
I1
aa(lp920
I1
aa(lp921
I0
aa(lp922
I2
aa(lp923
I2
aa(lp924
I5
aa(lp925
I8
aa(lp926
I2
aa(lp927
I4
aa(lp928
I4
aa(lp929
I1
aa(lp930
a(lp931
I5
aa(lp932
I6
aa(lp933
I6
aa(lp934
I1
aa(lp935
a(lp936
I0
aa(lp937
I8
aa(lp938
a(lp939
a(lp940
I8
aa(lp941
a(lp942
a(lp943
a(lp944
I2
aa(lp945
I7
aa(lp946
I4
aa(lp947
I1
aa(lp948
I7
aa(lp949
I2
aa(lp950
I1
aa(lp951
I1
aa(lp952
a(lp953
I6
aa(lp954
I2
aa(lp955
I1
aa(lp956
I7
aa(lp957
I6
aa(lp958
a(lp959
I4
aa(lp960
I8
aa(lp961
I2
aa(lp962
I2
aa(lp963
I0
aa(lp964
I8
aa(lp965
I6
aa(lp966
I1
aa(lp967
I5
aa(lp968
I4
aa(lp969
a(lp970
a(lp971
I7
aa(lp972
a(lp973
I5
aa(lp974
I6
aa(lp975
I5
aa(lp976
a(lp977
I2
aa(lp978
I9
aa(lp979
I7
aa(lp980
I1
aa(lp981
I4
aa(lp982
I3
aa(lp983
I8
aa(lp984
a(lp985
I5
aa(lp986
a(lp987
a(lp988
I8
aa(lp989
I6
aa(lp990
I4
aa(lp991
I2
aa(lp992
a(lp993
I1
aa(lp994
I0
aa(lp995
I6
aa(lp996
I4
aa(lp997
I7
aa(lp998
I2
aa(lp999
I4
aa(lp1000
I4
aa(lp1001
I2
aa(lp1002
I0
aa(lp1003
I6
aa(lp1004
a(lp1005
I8
aa(lp1006
I1
aa(lp1007
I2
aa(lp1008
I5
aa(lp1009
I8
aa(lp1010
I3
aa(lp1011
I2
aa(lp1012
I2
aa(lp1013
I9
aa(lp1014
I0
aa(lp1015
I1
aa(lp1016
I5
aa(lp1017
I1
aa(lp1018
I8
aa(lp1019
I0
aa(lp1020
I7
aa(lp1021
I8
aa(lp1022
a(lp1023
I0
aa(lp1024
a(lp1025
I6
aa(lp1026
I5
aa(lp1027
a(lp1028
I1
aa(lp1029
I7
aa(lp1030
a(lp1031
I2
aa(lp1032
a(lp1033
a(lp1034
I2
aa(lp1035
a(lp1036
a(lp1037
I1
aa(lp1038
a(lp1039
a(lp1040
I4
aa(lp1041
I2
aa(lp1042
I8
aa(lp1043
I5
aa(lp1044
I4
aa(lp1045
I5
aa(lp1046
I3
aa(lp1047
a(lp1048
I8
aa(lp1049
a(lp1050
I1
aa(lp1051
I3
aa(lp1052
I2
aa(lp1053
a(lp1054
I7
aa(lp1055
I1
aa(lp1056
I3
aa(lp1057
I4
aa(lp1058
I3
aa(lp1059
I6
aa(lp1060
I7
aa(lp1061
I7
aa(lp1062
I1
aa(lp1063
a(lp1064
I2
aa(lp1065
a(lp1066
a(lp1067
a(lp1068
I4
aa(lp1069
I8
aa(lp1070
a(lp1071
a(lp1072
a(lp1073
I6
aa(lp1074
a(lp1075
I1
aa(lp1076
a(lp1077
I0
aa(lp1078
I2
aa(lp1079
a(lp1080
I5
aa(lp1081
I7
aa(lp1082
I7
aa(lp1083
I8
aa(lp1084
a(lp1085
I2
aa(lp1086
I2
aa(lp1087
I2
aa(lp1088
I6
aa(lp1089
a(lp1090
I1
aa(lp1091
a(lp1092
a(lp1093
I1
aa(lp1094
I9
aa(lp1095
I6
aa(lp1096
a(lp1097
a(lp1098
I4
aa(lp1099
I6
aa(lp1100
a(lp1101
I2
aa(lp1102
a(lp1103
a(lp1104
I5
aa(lp1105
a(lp1106
I0
aa(lp1107
a(lp1108
I2
aa(lp1109
I7
aa(lp1110
a(lp1111
I5
aa(lp1112
I6
aa(lp1113
a(lp1114
I2
aa(lp1115
I1
aa(lp1116
I1
aa(lp1117
I0
aa(lp1118
a(lp1119
I6
aa(lp1120
a(lp1121
I6
aa(lp1122
I2
aa(lp1123
I1
aa(lp1124
a(lp1125
I1
aa(lp1126
I6
aa(lp1127
I1
aa(lp1128
a(lp1129
I4
aa(lp1130
I2
aa(lp1131
I2
aa(lp1132
I1
aa(lp1133
I4
aa(lp1134
a(lp1135
a(lp1136
I2
aa(lp1137
I1
aa(lp1138
I5
aa(lp1139
I7
aa(lp1140
I2
aa(lp1141
a(lp1142
a(lp1143
a(lp1144
I2
aa(lp1145
a(lp1146
I7
aa(lp1147
I8
aa(lp1148
I4
aa(lp1149
a(lp1150
I2
aa(lp1151
I6
aa(lp1152
a(lp1153
a(lp1154
I5
aa(lp1155
a(lp1156
I6
aa(lp1157
I0
aa(lp1158
a(lp1159
I2
aa(lp1160
I6
aa(lp1161
a(lp1162
a(lp1163
I3
aa(lp1164
I6
aa(lp1165
I2
aa(lp1166
I4
aa(lp1167
a(lp1168
I2
aa(lp1169
a(lp1170
I8
aa(lp1171
I6
aa(lp1172
I4
aa(lp1173
a(lp1174
I2
aa(lp1175
I0
aa(lp1176
I2
aa(lp1177
I4
aa(lp1178
I1
aa(lp1179
a(lp1180
I7
aa(lp1181
I8
aa(lp1182
I6
aa(lp1183
I8
aa(lp1184
I1
aa(lp1185
I8
aa(lp1186
a(lp1187
I7
aa(lp1188
I2
aa(lp1189
a(lp1190
a(lp1191
a(lp1192
I5
aa(lp1193
a(lp1194
I7
aa(lp1195
I8
aa(lp1196
I7
aa(lp1197
I1
aa(lp1198
I2
aa(lp1199
a(lp1200
I1
aa(lp1201
I8
aa(lp1202
I8
aa(lp1203
I7
aa(lp1204
a(lp1205
a(lp1206
I7
aa(lp1207
I4
aa(lp1208
a(lp1209
I6
aa(lp1210
I7
aa(lp1211
a(lp1212
I1
aa(lp1213
a(lp1214
a(lp1215
I5
aa(lp1216
I2
aa(lp1217
a(lp1218
a(lp1219
a(lp1220
I6
aa(lp1221
a(lp1222
I6
aa(lp1223
a(lp1224
I6
aa(lp1225
I7
aa(lp1226
I1
aa(lp1227
a(lp1228
a(lp1229
a(lp1230
a(lp1231
I4
aa(lp1232
a(lp1233
I9
aa(lp1234
I8
aa(lp1235
I1
aa(lp1236
I5
aa(lp1237
I5
aa(lp1238
I6
aa(lp1239
I0
aa(lp1240
I0
aa(lp1241
I8
aa(lp1242
I2
aa(lp1243
a(lp1244
a(lp1245
I6
aa(lp1246
a(lp1247
I2
aa(lp1248
I2
aa(lp1249
I9
aa(lp1250
I6
aa(lp1251
I2
aa(lp1252
I6
aa(lp1253
I2
aa(lp1254
I6
aa(lp1255
I3
aa(lp1256
a(lp1257
I8
aa(lp1258
a(lp1259
a(lp1260
I6
aa(lp1261
I1
aa(lp1262
I2
aa(lp1263
I9
aa(lp1264
I6
aa(lp1265
I4
aa(lp1266
a(lp1267
I7
aa(lp1268
I7
aa(lp1269
a(lp1270
I1
aa(lp1271
I6
aa(lp1272
I2
aa(lp1273
I2
aa(lp1274
I2
aa(lp1275
I8
aa(lp1276
a(lp1277
I3
aa(lp1278
I1
aa(lp1279
I3
aa(lp1280
I2
aa(lp1281
a(lp1282
I2
aa(lp1283
a(lp1284
I2
aa(lp1285
a(lp1286
I7
aa(lp1287
a(lp1288
a(lp1289
a(lp1290
I9
aa(lp1291
I6
aa(lp1292
I1
aa(lp1293
I2
aa(lp1294
I8
aa(lp1295
I8
aa(lp1296
I9
aa(lp1297
I2
aa(lp1298
I4
aa(lp1299
I2
aa(lp1300
I1
aa(lp1301
a(lp1302
I6
aa(lp1303
I4
aa(lp1304
a(lp1305
a(lp1306
I5
aa(lp1307
I8
aa(lp1308
a(lp1309
I3
aa(lp1310
I7
aa(lp1311
a(lp1312
I2
aa(lp1313
I4
aa(lp1314
I9
aa(lp1315
I6
aa(lp1316
I1
aa(lp1317
I0
aa(lp1318
a(lp1319
I3
aa(lp1320
a(lp1321
I8
aa(lp1322
I2
aa(lp1323
a(lp1324
a(lp1325
a(lp1326
I6
aa(lp1327
a(lp1328
I6
aa(lp1329
a(lp1330
I6
aa(lp1331
I2
aa(lp1332
I4
aa(lp1333
I2
aa(lp1334
a(lp1335
I8
aa(lp1336
a(lp1337
I9
aa(lp1338
a(lp1339
I7
aa(lp1340
I3
aa(lp1341
I1
aa(lp1342
a(lp1343
I9
aa(lp1344
I2
aa(lp1345
I3
aa(lp1346
I8
aa(lp1347
I9
aa(lp1348
I1
aa(lp1349
I7
aa(lp1350
I1
aa(lp1351
I4
aa(lp1352
I7
aa(lp1353
I3
aa(lp1354
a(lp1355
I5
aa(lp1356
I6
aa(lp1357
a(lp1358
a(lp1359
I6
aa(lp1360
I1
aa(lp1361
I4
aa(lp1362
I4
aa(lp1363
a(lp1364
I1
aa(lp1365
I6
aa(lp1366
I2
aa(lp1367
I6
aa(lp1368
I1
aa(lp1369
a(lp1370
a(lp1371
a(lp1372
I6
aa(lp1373
I7
aa(lp1374
a(lp1375
I2
aa(lp1376
I2
aa(lp1377
a(lp1378
I5
aa(lp1379
a(lp1380
I1
aa(lp1381
I7
aa(lp1382
I7
aa(lp1383
I8
aa(lp1384
I1
aa(lp1385
I4
aa(lp1386
I6
aa(lp1387
a(lp1388
I2
aa(lp1389
I0
aa(lp1390
a(lp1391
I6
aa(lp1392
a(lp1393
I6
aa(lp1394
I5
aa(lp1395
I1
aa(lp1396
a(lp1397
a(lp1398
I2
aa(lp1399
I6
aa(lp1400
I1
aa(lp1401
I8
aa(lp1402
I6
aa(lp1403
I4
aa(lp1404
I3
aa(lp1405
I6
aa(lp1406
a(lp1407
a(lp1408
a(lp1409
I4
aa(lp1410
a(lp1411
I3
aa(lp1412
a(lp1413
I4
aa(lp1414
a(lp1415
I7
aa(lp1416
a(lp1417
I0
aa(lp1418
a(lp1419
a(lp1420
I8
aa(lp1421
a(lp1422
I6
aa(lp1423
I1
aa(lp1424
a(lp1425
I4
aa(lp1426
I0
aa(lp1427
I1
aa(lp1428
a(lp1429
a(lp1430
a(lp1431
I2
aa(lp1432
I6
aa(lp1433
I8
aa(lp1434
I6
aa(lp1435
a(lp1436
I4
aa(lp1437
I1
aa(lp1438
a(lp1439
I8
aa(lp1440
a(lp1441
I4
aa(lp1442
a(lp1443
a(lp1444
I4
aa(lp1445
I2
aa(lp1446
a(lp1447
a(lp1448
a(lp1449
a(lp1450
I6
aa(lp1451
I0
aa(lp1452
I5
aa(lp1453
I7
aa(lp1454
I8
aa(lp1455
I2
aa(lp1456
a(lp1457
I2
aa(lp1458
I2
aa(lp1459
I1
aa(lp1460
a(lp1461
I6
aa(lp1462
I1
aa(lp1463
I1
aa(lp1464
a(lp1465
a(lp1466
I6
aa(lp1467
I1
aa(lp1468
I7
aa(lp1469
I7
aa(lp1470
a(lp1471
I6
aa(lp1472
I9
aa(lp1473
I4
aa(lp1474
I8
aa(lp1475
a(lp1476
I6
aa(lp1477
a(lp1478
I1
aa(lp1479
I2
aa(lp1480
a(lp1481
I4
aa(lp1482
I2
aa(lp1483
I9
aa(lp1484
a(lp1485
I1
aa(lp1486
a(lp1487
a(lp1488
I2
aa(lp1489
a(lp1490
I4
aa(lp1491
I8
aa(lp1492
a(lp1493
I4
aa(lp1494
a(lp1495
I4
aa(lp1496
I4
aa(lp1497
I8
aa(lp1498
I2
aa(lp1499
I8
aa(lp1500
a(lp1501
I2
aa(lp1502
a(lp1503
I2
aa(lp1504
a(lp1505
a(lp1506
I2
aa(lp1507
a(lp1508
I2
aa(lp1509
a(lp1510
I1
aa(lp1511
I8
aa(lp1512
a(lp1513
a(lp1514
a(lp1515
a(lp1516
a(lp1517
I8
aa(lp1518
I4
aa(lp1519
I4
aa(lp1520
a(lp1521
I6
aa(lp1522
I3
aa(lp1523
a(lp1524
I0
aa(lp1525
I5
aa(lp1526
a(lp1527
I8
aa(lp1528
I6
aa(lp1529
a(lp1530
I1
aa(lp1531
a(lp1532
I0
aa(lp1533
I4
aa(lp1534
a(lp1535
a(lp1536
I4
aa(lp1537
I3
aa(lp1538
I1
aa(lp1539
I8
aa(lp1540
I2
aa(lp1541
I7
aa(lp1542
I6
aa(lp1543
a(lp1544
I2
aa(lp1545
a(lp1546
I8
aa(lp1547
I7
aa(lp1548
a(lp1549
I1
aa(lp1550
I2
aa(lp1551
I4
aa(lp1552
a(lp1553
I0
aa(lp1554
I1
aa(lp1555
a(lp1556
I7
aa(lp1557
a(lp1558
a(lp1559
I9
aa(lp1560
a(lp1561
I2
aa(lp1562
I0
aa(lp1563
I6
aa(lp1564
a(lp1565
a(lp1566
a(lp1567
a(lp1568
I1
aa(lp1569
I4
aa(lp1570
I6
aa(lp1571
I8
aa(lp1572
I6
aa(lp1573
a(lp1574
I8
aa(lp1575
I7
aa(lp1576
a(lp1577
I2
aa(lp1578
I7
aa(lp1579
I4
aa(lp1580
a(lp1581
I1
aa(lp1582
I5
aa(lp1583
a(lp1584
I6
aa(lp1585
I6
aa(lp1586
I7
aa(lp1587
I5
aa(lp1588
I3
aa(lp1589
a(lp1590
a(lp1591
I2
aa(lp1592
a(lp1593
a(lp1594
I3
aa(lp1595
I5
aa(lp1596
I8
aa(lp1597
a(lp1598
I6
aa(lp1599
I6
aa(lp1600
a(lp1601
a(lp1602
a(lp1603
I2
aa(lp1604
I9
aa(lp1605
I7
aa(lp1606
a(lp1607
I4
aa(lp1608
I2
aa(lp1609
I1
aa(lp1610
a(lp1611
a(lp1612
I5
aa(lp1613
I2
aa(lp1614
I1
aa(lp1615
I2
aa(lp1616
a(lp1617
I2
aa(lp1618
I1
aa(lp1619
I3
aa(lp1620
I2
aa(lp1621
I2
aa(lp1622
I1
aa(lp1623
a(lp1624
I1
aa(lp1625
a(lp1626
a(lp1627
I6
aa(lp1628
I6
aa(lp1629
a(lp1630
a(lp1631
I3
aa(lp1632
I6
aa(lp1633
I4
aa(lp1634
I3
aa(lp1635
a(lp1636
I2
aa(lp1637
I6
aa(lp1638
a(lp1639
I5
aa(lp1640
I1
aa(lp1641
I5
aa(lp1642
I1
aa(lp1643
I0
aa(lp1644
I7
aa(lp1645
I7
aa(lp1646
a(lp1647
I9
aa(lp1648
I1
aa(lp1649
I8
aa(lp1650
I5
aa(lp1651
I3
aa(lp1652
I6
aa(lp1653
a(lp1654
a(lp1655
a(lp1656
a(lp1657
a(lp1658
I6
aa(lp1659
I2
aa(lp1660
a(lp1661
I3
aa(lp1662
a(lp1663
a(lp1664
I9
aa(lp1665
I3
aa(lp1666
I6
aa(lp1667
a(lp1668
I1
aa(lp1669
I8
aa(lp1670
I8
aa(lp1671
a(lp1672
I5
aa(lp1673
I2
aa(lp1674
I4
aa(lp1675
I3
aa(lp1676
a(lp1677
a(lp1678
I6
aa(lp1679
I8
aa(lp1680
I7
aa(lp1681
a(lp1682
a(lp1683
I1
aa(lp1684
a(lp1685
a(lp1686
a(lp1687
a(lp1688
a(lp1689
a(lp1690
I1
aa(lp1691
I7
aa(lp1692
I8
aa(lp1693
a(lp1694
I1
aa(lp1695
I1
aa(lp1696
a(lp1697
I4
aa(lp1698
I2
aa(lp1699
I0
aa(lp1700
I8
aa(lp1701
I2
aa(lp1702
I6
aa(lp1703
I2
aa(lp1704
I9
aa(lp1705
I1
aa(lp1706
a(lp1707
a(lp1708
I2
aa(lp1709
I1
aa(lp1710
a(lp1711
a(lp1712
I8
aa(lp1713
a(lp1714
I6
aa(lp1715
a(lp1716
I9
aa(lp1717
I7
aa(lp1718
a(lp1719
I7
aa(lp1720
I1
aa(lp1721
a(lp1722
a(lp1723
I3
aa(lp1724
I4
aa(lp1725
a(lp1726
I7
aa(lp1727
a(lp1728
a(lp1729
I2
aa(lp1730
a(lp1731
I2
aa(lp1732
I0
aa(lp1733
I4
aa(lp1734
a(lp1735
I6
aa(lp1736
I0
aa(lp1737
I7
aa(lp1738
a(lp1739
I6
aa(lp1740
I1
aa(lp1741
a(lp1742
a(lp1743
a(lp1744
I6
aa(lp1745
a(lp1746
I7
aa(lp1747
I8
aa(lp1748
I1
aa(lp1749
I5
aa(lp1750
a(lp1751
I5
aa(lp1752
I1
aa(lp1753
I4
aa(lp1754
a(lp1755
a(lp1756
a(lp1757
I7
aa(lp1758
I4
aa(lp1759
a(lp1760
a(lp1761
a(lp1762
I9
aa(lp1763
I1
aa(lp1764
a(lp1765
I4
aa(lp1766
I3
aa(lp1767
I2
aa(lp1768
I7
aa(lp1769
a(lp1770
I4
aa(lp1771
I1
aa(lp1772
I6
aa(lp1773
I1
aa(lp1774
a(lp1775
a(lp1776
I4
aa(lp1777
a(lp1778
a(lp1779
a(lp1780
I2
aa(lp1781
a(lp1782
I7
aa(lp1783
I1
aa(lp1784
a(lp1785
I0
aa(lp1786
a(lp1787
I2
aa(lp1788
I7
aa(lp1789
a(lp1790
I5
aa(lp1791
I2
aa(lp1792
I5
aa(lp1793
I7
aa(lp1794
I1
aa(lp1795
I5
aa(lp1796
I3
aa(lp1797
a(lp1798
I7
aa(lp1799
I1
aa(lp1800
I1
aa(lp1801
I6
aa(lp1802
I4
aa(lp1803
I4
aa(lp1804
I1
aa(lp1805
I2
aa(lp1806
a(lp1807
I2
aa(lp1808
I2
aa(lp1809
a(lp1810
I8
aa(lp1811
I9
aa(lp1812
a(lp1813
I2
aa(lp1814
I4
aa(lp1815
I7
aa(lp1816
a(lp1817
I2
aa(lp1818
a(lp1819
I4
aa(lp1820
a(lp1821
I4
aa(lp1822
a(lp1823
I8
aa(lp1824
a(lp1825
I8
aa(lp1826
I6
aa(lp1827
a(lp1828
a(lp1829
a(lp1830
I2
aa(lp1831
I0
aa(lp1832
I7
aa(lp1833
I6
aa(lp1834
I4
aa(lp1835
I8
aa(lp1836
I0
aa(lp1837
I6
aa(lp1838
a(lp1839
I1
aa(lp1840
I0
aa(lp1841
I2
aa(lp1842
I3
aa(lp1843
I5
aa(lp1844
a(lp1845
I3
aa(lp1846
I7
aa(lp1847
a(lp1848
a(lp1849
a(lp1850
I1
aa(lp1851
a(lp1852
I0
aa(lp1853
a(lp1854
I7
aa(lp1855
I0
aa(lp1856
a(lp1857
a(lp1858
I1
aa(lp1859
I8
aa(lp1860
I5
aa(lp1861
a(lp1862
I1
aa(lp1863
I0
aa(lp1864
I8
aa(lp1865
I4
aa(lp1866
I4
aa(lp1867
I4
aa(lp1868
I2
aa(lp1869
I6
aa(lp1870
I2
aa(lp1871
I1
aa(lp1872
I8
aa(lp1873
I0
aa(lp1874
I3
aa(lp1875
I2
aa(lp1876
I1
aa(lp1877
I8
aa(lp1878
I4
aa(lp1879
a(lp1880
a(lp1881
a(lp1882
I6
aa(lp1883
a(lp1884
I8
aa(lp1885
I4
aa(lp1886
I1
aa(lp1887
a(lp1888
a(lp1889
I4
aa(lp1890
a(lp1891
a(lp1892
I4
aa(lp1893
a(lp1894
a(lp1895
I2
aa(lp1896
a(lp1897
I9
aa(lp1898
I1
aa(lp1899
I6
aa(lp1900
I2
aa(lp1901
I6
aa(lp1902
a(lp1903
I0
aa(lp1904
I4
aa(lp1905
I2
aa(lp1906
I5
aa(lp1907
I4
aa(lp1908
I2
aa(lp1909
I3
aa(lp1910
a(lp1911
I8
aa(lp1912
I2
aa(lp1913
I2
aa(lp1914
I2
aa(lp1915
I9
aa(lp1916
I5
aa(lp1917
I2
aa(lp1918
I4
aa(lp1919
a(lp1920
a(lp1921
a(lp1922
a(lp1923
I9
aa(lp1924
I6
aa(lp1925
a(lp1926
a(lp1927
a(lp1928
I2
aa(lp1929
I2
aa(lp1930
I5
aa(lp1931
I5
aa(lp1932
I5
aa(lp1933
a(lp1934
a(lp1935
I7
aa(lp1936
a(lp1937
I8
aa(lp1938
I6
aa(lp1939
I4
aa(lp1940
a(lp1941
I6
aa(lp1942
a(lp1943
I1
aa(lp1944
a(lp1945
I7
aa(lp1946
a(lp1947
a(lp1948
I6
aa(lp1949
I4
aa(lp1950
a(lp1951
a(lp1952
I2
aa(lp1953
I8
aa(lp1954
I2
aa(lp1955
a(lp1956
I6
aa(lp1957
I2
aa(lp1958
a(lp1959
I5
aa(lp1960
I6
aa(lp1961
a(lp1962
I4
aa(lp1963
I8
aa(lp1964
I5
aa(lp1965
I4
aa(lp1966
I5
aa(lp1967
I4
aa(lp1968
a(lp1969
a(lp1970
I7
aa(lp1971
a(lp1972
I2
aa(lp1973
I0
aa(lp1974
I6
aa(lp1975
a(lp1976
a(lp1977
a(lp1978
I1
aa(lp1979
a(lp1980
I2
aa(lp1981
a(lp1982
I2
aa(lp1983
I6
aa(lp1984
I3
aa(lp1985
a(lp1986
a(lp1987
a(lp1988
a(lp1989
I1
aa(lp1990
I2
aa(lp1991
I7
aa(lp1992
I6
aa(lp1993
I1
aa(lp1994
a(lp1995
I1
aa(lp1996
a(lp1997
I0
aa(lp1998
I1
aa(lp1999
I9
aa(lp2000
a(lp2001
I2
aa(lp2002
a(lp2003
I2
aa(lp2004
I6
aa(lp2005
a(lp2006
I6
aa(lp2007
I3
aa(lp2008
I4
aa(lp2009
I2
aa(lp2010
I4
aa(lp2011
I7
aa(lp2012
a(lp2013
I8
aa(lp2014
I2
aa(lp2015
I7
aa(lp2016
I6
aa(lp2017
a(lp2018
a(lp2019
I2
aa(lp2020
I7
aa(lp2021
I4
aa(lp2022
I4
aa(lp2023
I7
aa(lp2024
I4
aa(lp2025
I1
aa(lp2026
a(lp2027
I2
aa(lp2028
a(lp2029
I7
aa(lp2030
I7
aa(lp2031
I0
aa(lp2032
a(lp2033
I0
aa(lp2034
I4
aa(lp2035
I3
aa(lp2036
I7
aa(lp2037
I4
aa(lp2038
a(lp2039
a(lp2040
a(lp2041
I7
aa(lp2042
a(lp2043
I6
aa(lp2044
I6
aa(lp2045
I5
aa(lp2046
I4
aa(lp2047
I5
aa(lp2048
I4
aa(lp2049
a(lp2050
a(lp2051
a(lp2052
I1
aa(lp2053
I4
aa(lp2054
a(lp2055
a(lp2056
I6
aa(lp2057
I1
aa(lp2058
I2
aa(lp2059
a(lp2060
a(lp2061
I7
aa(lp2062
a(lp2063
I0
aa(lp2064
a(lp2065
I8
aa(lp2066
a(lp2067
I3
aa(lp2068
a(lp2069
a(lp2070
I2
aa(lp2071
I1
aa(lp2072
a(lp2073
I6
aa(lp2074
I4
aa(lp2075
I2
aa(lp2076
I6
aa(lp2077
a(lp2078
a(lp2079
I2
aa(lp2080
a(lp2081
I7
aa(lp2082
I2
aa(lp2083
a(lp2084
I1
aa(lp2085
I2
aa(lp2086
I2
aa(lp2087
I6
aa(lp2088
a(lp2089
I2
aa(lp2090
a(lp2091
I7
aa(lp2092
I3
aa(lp2093
I2
aa(lp2094
a(lp2095
a(lp2096
I6
aa(lp2097
I8
aa(lp2098
a(lp2099
I8
aa(lp2100
a(lp2101
a(lp2102
I7
aa(lp2103
I6
aa(lp2104
I4
aa(lp2105
a(lp2106
I8
aa(lp2107
a(lp2108
a(lp2109
I8
aa(lp2110
a(lp2111
I5
aa(lp2112
a(lp2113
a(lp2114
a(lp2115
I2
aa(lp2116
a(lp2117
a(lp2118
I1
aa(lp2119
I6
aa(lp2120
a(lp2121
I2
aa(lp2122
I2
aa(lp2123
I1
aa(lp2124
I2
aa(lp2125
I9
aa(lp2126
I2
aa(lp2127
I8
aa(lp2128
I1
aa(lp2129
a(lp2130
I0
aa(lp2131
a(lp2132
I6
aa(lp2133
I4
aa(lp2134
I7
aa(lp2135
I1
aa(lp2136
I4
aa(lp2137
I9
aa(lp2138
a(lp2139
a(lp2140
a(lp2141
a(lp2142
a(lp2143
I8
aa(lp2144
a(lp2145
I6
aa(lp2146
I2
aa(lp2147
I6
aa(lp2148
I0
aa(lp2149
I1
aa(lp2150
I2
aa(lp2151
I9
aa(lp2152
a(lp2153
a(lp2154
a(lp2155
a(lp2156
I6
aa(lp2157
a(lp2158
I2
aa(lp2159
I6
aa(lp2160
I4
aa(lp2161
I7
aa(lp2162
I4
aa(lp2163
I4
aa(lp2164
a(lp2165
I5
aa(lp2166
I3
aa(lp2167
a(lp2168
I1
aa(lp2169
I1
aa(lp2170
a(lp2171
a(lp2172
I6
aa(lp2173
a(lp2174
a(lp2175
I1
aa(lp2176
I1
aa(lp2177
a(lp2178
I9
aa(lp2179
I6
aa(lp2180
I2
aa(lp2181
I5
aa(lp2182
a(lp2183
I8
aa(lp2184
a(lp2185
a(lp2186
a(lp2187
a(lp2188
a(lp2189
a(lp2190
a(lp2191
I8
aa(lp2192
I7
aa(lp2193
a(lp2194
I2
aa(lp2195
a(lp2196
a(lp2197
I1
aa(lp2198
I4
aa(lp2199
I7
aa(lp2200
I1
aa(lp2201
I0
aa(lp2202
a(lp2203
I2
aa(lp2204
I4
aa(lp2205
I1
aa(lp2206
I2
aa(lp2207
I1
aa(lp2208
I4
aa(lp2209
I8
aa(lp2210
a(lp2211
I2
aa(lp2212
I2
aa(lp2213
I7
aa(lp2214
a(lp2215
I4
aa(lp2216
a(lp2217
I8
aa(lp2218
a(lp2219
a(lp2220
I9
aa(lp2221
a(lp2222
I0
aa(lp2223
I5
aa(lp2224
I2
aa(lp2225
a(lp2226
a(lp2227
I7
aa(lp2228
a(lp2229
I4
aa(lp2230
a(lp2231
a(lp2232
I4
aa(lp2233
I6
aa(lp2234
I8
aa(lp2235
I4
aa(lp2236
a(lp2237
I3
aa(lp2238
I1
aa(lp2239
I8
aa(lp2240
I7
aa(lp2241
a(lp2242
I4
aa(lp2243
I5
aa(lp2244
I0
aa(lp2245
I9
aa(lp2246
a(lp2247
a(lp2248
I3
aa(lp2249
a(lp2250
I9
aa(lp2251
I5
aa(lp2252
a(lp2253
I7
aa(lp2254
I6
aa(lp2255
a(lp2256
a(lp2257
a(lp2258
I6
aa(lp2259
I1
aa(lp2260
a(lp2261
I5
aa(lp2262
a(lp2263
I3
aa(lp2264
I1
aa(lp2265
I8
aa(lp2266
a(lp2267
a(lp2268
a(lp2269
I5
aa(lp2270
I2
aa(lp2271
I2
aa(lp2272
a(lp2273
I1
aa(lp2274
a(lp2275
a(lp2276
I0
aa(lp2277
a(lp2278
a(lp2279
I1
aa(lp2280
a(lp2281
I2
aa(lp2282
a(lp2283
I4
aa(lp2284
a(lp2285
I7
aa(lp2286
I1
aa(lp2287
I6
aa(lp2288
I1
aa(lp2289
I6
aa(lp2290
I6
aa(lp2291
a(lp2292
I9
aa(lp2293
I2
aa(lp2294
I7
aa(lp2295
a(lp2296
a(lp2297
I7
aa(lp2298
I4
aa(lp2299
I2
aa(lp2300
I2
aa(lp2301
a(lp2302
I2
aa(lp2303
I6
aa(lp2304
a(lp2305
I1
aa(lp2306
I8
aa(lp2307
I8
aa(lp2308
I2
aa(lp2309
I4
aa(lp2310
a(lp2311
I2
aa(lp2312
a(lp2313
a(lp2314
I1
aa(lp2315
a(lp2316
I4
aa(lp2317
a(lp2318
a(lp2319
I5
aa(lp2320
a(lp2321
a(lp2322
a(lp2323
I7
aa(lp2324
I7
aa(lp2325
a(lp2326
I5
aa(lp2327
I4
aa(lp2328
I6
aa(lp2329
a(lp2330
a(lp2331
I4
aa(lp2332
I6
aa(lp2333
I8
aa(lp2334
I6
aa(lp2335
I7
aa(lp2336
I1
aa(lp2337
I0
aa(lp2338
a(lp2339
a(lp2340
I8
aa(lp2341
I8
aa(lp2342
a(lp2343
a(lp2344
I1
aa(lp2345
I6
aa(lp2346
a(lp2347
I6
aa(lp2348
I4
aa(lp2349
a(lp2350
I2
aa(lp2351
I8
aa(lp2352
a(lp2353
I8
aa(lp2354
I2
aa(lp2355
a(lp2356
I7
aa(lp2357
I6
aa(lp2358
I5
aa(lp2359
I0
aa(lp2360
I7
aa(lp2361
a(lp2362
a(lp2363
I2
aa(lp2364
I1
aa(lp2365
I5
aa(lp2366
a(lp2367
I1
aa(lp2368
I1
aa(lp2369
I9
aa(lp2370
a(lp2371
I8
aa(lp2372
a(lp2373
I4
aa(lp2374
I4
aa(lp2375
I6
aa(lp2376
I0
aa(lp2377
I2
aa(lp2378
a(lp2379
I0
aa(lp2380
I4
aa(lp2381
I7
aa(lp2382
I2
aa(lp2383
I3
aa(lp2384
I3
aa(lp2385
a(lp2386
a(lp2387
I2
aa(lp2388
I4
aa(lp2389
I4
aa(lp2390
a(lp2391
I4
aa(lp2392
I6
aa(lp2393
I6
aa(lp2394
I8
aa(lp2395
a(lp2396
I8
aa(lp2397
I1
aa(lp2398
I2
aa(lp2399
I6
aa(lp2400
I7
aa(lp2401
I7
aa(lp2402
I5
aa(lp2403
a(lp2404
I5
aa(lp2405
I2
aa(lp2406
I6
aa(lp2407
I6
aa(lp2408
I4
aa(lp2409
I8
aa(lp2410
I2
aa(lp2411
a(lp2412
I3
aa(lp2413
a(lp2414
a(lp2415
I2
aa(lp2416
I1
aa(lp2417
I4
aa(lp2418
I4
aa(lp2419
I8
aa(lp2420
I6
aa(lp2421
a(lp2422
a(lp2423
I8
aa(lp2424
a(lp2425
I2
aa(lp2426
I6
aa(lp2427
a(lp2428
I7
aa(lp2429
I4
aa(lp2430
I2
aa(lp2431
I6
aa(lp2432
I2
aa(lp2433
a(lp2434
I2
aa(lp2435
I3
aa(lp2436
I2
aa(lp2437
I0
aa(lp2438
a(lp2439
I7
aa(lp2440
I7
aa(lp2441
I0
aa(lp2442
I5
aa(lp2443
I2
aa(lp2444
I5
aa(lp2445
I4
aa(lp2446
I6
aa(lp2447
I1
aa(lp2448
I8
aa(lp2449
I6
aa(lp2450
a(lp2451
I4
aa(lp2452
I5
aa(lp2453
I1
aa(lp2454
a(lp2455
I4
aa(lp2456
I6
aa(lp2457
I7
aa(lp2458
I6
aa(lp2459
I8
aa(lp2460
I3
aa(lp2461
I1
aa(lp2462
I0
aa(lp2463
I4
aa(lp2464
I2
aa(lp2465
I8
aa(lp2466
a(lp2467
I2
aa(lp2468
I0
aa(lp2469
I2
aa(lp2470
I4
aa(lp2471
I2
aa(lp2472
a(lp2473
I9
aa(lp2474
I6
aa(lp2475
I0
aa(lp2476
I2
aa(lp2477
I2
aa(lp2478
I2
aa(lp2479
I8
aa(lp2480
I6
aa(lp2481
I6
aa(lp2482
I6
aa(lp2483
I4
aa(lp2484
I5
aa(lp2485
I1
aa(lp2486
I3
aa(lp2487
a(lp2488
I3
aa(lp2489
a(lp2490
a(lp2491
I5
aa(lp2492
a(lp2493
I9
aa(lp2494
I6
aa(lp2495
I5
aa(lp2496
a(lp2497
a(lp2498
a(lp2499
a(lp2500
I9
aa(lp2501
a(lp2502
I1
aa(lp2503
I1
aa(lp2504
I4
aa(lp2505
a(lp2506
a(lp2507
I1
aa(lp2508
I1
aa(lp2509
I1
aa(lp2510
I2
aa(lp2511
I4
aa(lp2512
I1
aa(lp2513
I4
aa(lp2514
a(lp2515
I4
aa(lp2516
a(lp2517
a(lp2518
a(lp2519
I5
aa(lp2520
I8
aa(lp2521
a(lp2522
I7
aa(lp2523
a(lp2524
I8
aa(lp2525
I8
aa(lp2526
I9
aa(lp2527
I5
aa(lp2528
a(lp2529
a(lp2530
I5
aa(lp2531
I1
aa(lp2532
a(lp2533
I0
aa(lp2534
I2
aa(lp2535
a(lp2536
I2
aa(lp2537
I7
aa(lp2538
a(lp2539
I5
aa(lp2540
a(lp2541
I0
aa(lp2542
I2
aa(lp2543
a(lp2544
I5
aa(lp2545
a(lp2546
a(lp2547
I1
aa(lp2548
I0
aa(lp2549
I2
aa(lp2550
I6
aa(lp2551
I0
aa(lp2552
I2
aa(lp2553
I5
aa(lp2554
I0
aa(lp2555
I4
aa(lp2556
I2
aa(lp2557
a(lp2558
a(lp2559
a(lp2560
a(lp2561
I1
aa(lp2562
a(lp2563
a(lp2564
a(lp2565
I6
aa(lp2566
I1
aa(lp2567
I7
aa(lp2568
I1
aa(lp2569
a(lp2570
a(lp2571
I4
aa(lp2572
I1
aa(lp2573
a(lp2574
I7
aa(lp2575
a(lp2576
a(lp2577
I2
aa(lp2578
a(lp2579
I3
aa(lp2580
a(lp2581
I8
aa(lp2582
I6
aa(lp2583
I1
aa(lp2584
I5
aa(lp2585
I2
aa(lp2586
I7
aa(lp2587
a(lp2588
I7
aa(lp2589
I1
aa(lp2590
I0
aa(lp2591
I2
aa(lp2592
I2
aa(lp2593
a(lp2594
a(lp2595
a(lp2596
a(lp2597
I5
aa(lp2598
a(lp2599
a(lp2600
I1
aa(lp2601
I4
aa(lp2602
a(lp2603
I1
aa(lp2604
I6
aa(lp2605
a(lp2606
I3
aa(lp2607
I5
aa(lp2608
I0
aa(lp2609
I3
aa(lp2610
I8
aa(lp2611
I0
aa(lp2612
a(lp2613
I2
aa(lp2614
I2
aa(lp2615
I3
aa(lp2616
I3
aa(lp2617
I4
aa(lp2618
a(lp2619
I7
aa(lp2620
I6
aa(lp2621
I4
aa(lp2622
I2
aa(lp2623
I5
aa(lp2624
I8
aa(lp2625
I6
aa(lp2626
a(lp2627
a(lp2628
I7
aa(lp2629
I5
aa(lp2630
I1
aa(lp2631
I6
aa(lp2632
I7
aa(lp2633
I7
aa(lp2634
I0
aa(lp2635
I5
aa(lp2636
I8
aa(lp2637
I8
aa(lp2638
a(lp2639
a(lp2640
I7
aa(lp2641
I8
aa(lp2642
I1
aa(lp2643
a(lp2644
I2
aa(lp2645
a(lp2646
I4
aa(lp2647
I3
aa(lp2648
I1
aa(lp2649
I2
aa(lp2650
a(lp2651
I2
aa(lp2652
I0
aa(lp2653
a(lp2654
I4
aa(lp2655
I1
aa(lp2656
I0
aa(lp2657
a(lp2658
I1
aa(lp2659
I0
aa(lp2660
a(lp2661
I6
aa(lp2662
I5
aa(lp2663
I2
aa(lp2664
I8
aa(lp2665
a(lp2666
I6
aa(lp2667
a(lp2668
a(lp2669
I1
aa(lp2670
a(lp2671
I2
aa(lp2672
I0
aa(lp2673
a(lp2674
I5
aa(lp2675
I1
aa(lp2676
a(lp2677
a(lp2678
I6
aa(lp2679
I4
aa(lp2680
a(lp2681
I7
aa(lp2682
I2
aa(lp2683
a(lp2684
a(lp2685
a(lp2686
a(lp2687
I8
aa(lp2688
a(lp2689
a(lp2690
I6
aa(lp2691
I8
aa(lp2692
I1
aa(lp2693
a(lp2694
I1
aa(lp2695
a(lp2696
a(lp2697
I1
aa(lp2698
I1
aa(lp2699
I5
aa(lp2700
I7
aa(lp2701
I2
aa(lp2702
I4
aa(lp2703
a(lp2704
I4
aa(lp2705
a(lp2706
I2
aa(lp2707
I2
aa(lp2708
I6
aa(lp2709
I6
aa(lp2710
a(lp2711
I1
aa(lp2712
I6
aa(lp2713
I8
aa(lp2714
I1
aa(lp2715
I6
aa(lp2716
I2
aa(lp2717
I5
aa(lp2718
I1
aa(lp2719
I4
aa(lp2720
I9
aa(lp2721
I6
aa(lp2722
I6
aa(lp2723
I0
aa(lp2724
I9
aa(lp2725
I9
aa(lp2726
a(lp2727
I3
aa(lp2728
I6
aa(lp2729
I1
aa(lp2730
a(lp2731
a(lp2732
a(lp2733
a(lp2734
I5
aa(lp2735
a(lp2736
I1
aa(lp2737
I1
aa(lp2738
I2
aa(lp2739
I6
aa(lp2740
a(lp2741
I2
aa(lp2742
a(lp2743
I4
aa(lp2744
a(lp2745
I6
aa(lp2746
I2
aa(lp2747
I4
aa(lp2748
I4
aa(lp2749
a(lp2750
I7
aa(lp2751
I8
aa(lp2752
I5
aa(lp2753
I8
aa(lp2754
I0
aa(lp2755
I8
aa(lp2756
a(lp2757
I1
aa(lp2758
I7
aa(lp2759
I1
aa(lp2760
a(lp2761
a(lp2762
a(lp2763
a(lp2764
a(lp2765
I6
aa(lp2766
a(lp2767
a(lp2768
I6
aa(lp2769
I4
aa(lp2770
I3
aa(lp2771
I1
aa(lp2772
a(lp2773
I6
aa(lp2774
I1
aa(lp2775
a(lp2776
I6
aa(lp2777
I0
aa(lp2778
I3
aa(lp2779
a(lp2780
a(lp2781
I4
aa(lp2782
a(lp2783
I6
aa(lp2784
I6
aa(lp2785
I1
aa(lp2786
I1
aa(lp2787
I5
aa(lp2788
a(lp2789
a(lp2790
I9
aa(lp2791
I1
aa(lp2792
a(lp2793
a(lp2794
I6
aa(lp2795
I4
aa(lp2796
a(lp2797
I6
aa(lp2798
I3
aa(lp2799
I8
aa(lp2800
I9
aa(lp2801
I9
aa(lp2802
I3
aa(lp2803
I9
aa(lp2804
I2
aa(lp2805
a(lp2806
I4
aa(lp2807
I1
aa(lp2808
I0
aa(lp2809
a(lp2810
I4
aa(lp2811
a(lp2812
I2
aa(lp2813
I5
aa(lp2814
I3
aa(lp2815
I2
aa(lp2816
a(lp2817
I4
aa(lp2818
I1
aa(lp2819
I2
aa(lp2820
I4
aa(lp2821
a(lp2822
I7
aa(lp2823
a(lp2824
I2
aa(lp2825
I2
aa(lp2826
I2
aa(lp2827
I0
aa(lp2828
I7
aa(lp2829
a(lp2830
a(lp2831
a(lp2832
a(lp2833
I8
aa(lp2834
a(lp2835
I4
aa(lp2836
a(lp2837
a(lp2838
a(lp2839
a(lp2840
a(lp2841
a(lp2842
a(lp2843
I4
aa(lp2844
I8
aa(lp2845
a(lp2846
a(lp2847
a(lp2848
I4
aa(lp2849
a(lp2850
a(lp2851
I1
aa(lp2852
I7
aa(lp2853
a(lp2854
a(lp2855
a(lp2856
I1
aa(lp2857
a(lp2858
I1
aa(lp2859
a(lp2860
a(lp2861
a(lp2862
a(lp2863
I1
aa(lp2864
I7
aa(lp2865
I8
aa(lp2866
I2
aa(lp2867
I1
aa(lp2868
I1
aa(lp2869
I7
aa(lp2870
a(lp2871
I5
aa(lp2872
I9
aa(lp2873
a(lp2874
I2
aa(lp2875
I4
aa(lp2876
I8
aa(lp2877
I6
aa(lp2878
I8
aa(lp2879
I7
aa(lp2880
I6
aa(lp2881
a(lp2882
a(lp2883
a(lp2884
a(lp2885
a(lp2886
I1
aa(lp2887
I9
aa(lp2888
I6
aa(lp2889
a(lp2890
a(lp2891
I8
aa(lp2892
I2
aa(lp2893
I4
aa(lp2894
I1
aa(lp2895
a(lp2896
a(lp2897
I9
aa(lp2898
I4
aa(lp2899
a(lp2900
I2
aa(lp2901
I5
aa(lp2902
I2
aa(lp2903
a(lp2904
I5
aa(lp2905
a(lp2906
a(lp2907
I2
aa(lp2908
I1
aa(lp2909
I6
aa(lp2910
I6
aa(lp2911
I1
aa(lp2912
a(lp2913
I2
aa(lp2914
a(lp2915
I5
aa(lp2916
a(lp2917
a(lp2918
a(lp2919
a(lp2920
I4
aa(lp2921
a(lp2922
I4
aa(lp2923
I1
aa(lp2924
I0
aa(lp2925
I1
aa(lp2926
I5
aa(lp2927
I2
aa(lp2928
I7
aa(lp2929
I5
aa(lp2930
I6
aa(lp2931
I0
aa(lp2932
I6
aa(lp2933
I2
aa(lp2934
I8
aa(lp2935
a(lp2936
a(lp2937
I2
aa(lp2938
I2
aa(lp2939
a(lp2940
a(lp2941
a(lp2942
a(lp2943
I2
aa(lp2944
I2
aa(lp2945
a(lp2946
a(lp2947
I7
aa(lp2948
I4
aa(lp2949
a(lp2950
a(lp2951
I3
aa(lp2952
I9
aa(lp2953
I2
aa(lp2954
a(lp2955
a(lp2956
I7
aa(lp2957
I2
aa(lp2958
I8
aa(lp2959
I7
aa(lp2960
I0
aa(lp2961
I5
aa(lp2962
I8
aa(lp2963
I1
aa(lp2964
I5
aa(lp2965
I4
aa(lp2966
a(lp2967
a(lp2968
I3
aa(lp2969
I5
aa(lp2970
a(lp2971
a(lp2972
I2
aa(lp2973
I4
aa(lp2974
I9
aa(lp2975
I7
aa(lp2976
a(lp2977
I4
aa(lp2978
I0
aa(lp2979
I6
aa(lp2980
a(lp2981
I2
aa(lp2982
I7
aa(lp2983
I1
aa(lp2984
I5
aa(lp2985
I6
aa(lp2986
I0
aa(lp2987
a(lp2988
I6
aa(lp2989
I0
aa(lp2990
I1
aa(lp2991
I7
aa(lp2992
I0
aa(lp2993
a(lp2994
a(lp2995
I4
aa(lp2996
I4
aa(lp2997
a(lp2998
a(lp2999
I2
aa(lp3000
I3
aa(lp3001
a(lp3002
I2
aa(lp3003
I3
aa(lp3004
a(lp3005
I8
aa(lp3006
a(lp3007
I2
aa(lp3008
a(lp3009
I6
aa(lp3010
I2
aa(lp3011
I9
aa(lp3012
a(lp3013
I7
aa(lp3014
I7
aa(lp3015
I1
aa(lp3016
a(lp3017
I7
aa(lp3018
I3
aa(lp3019
a(lp3020
a(lp3021
I6
aa(lp3022
a(lp3023
I7
aa(lp3024
I6
aa(lp3025
a(lp3026
I4
aa(lp3027
I5
aa(lp3028
a(lp3029
I6
aa(lp3030
a(lp3031
a(lp3032
a(lp3033
I6
aa(lp3034
I4
aa(lp3035
a(lp3036
a(lp3037
a(lp3038
I4
aa(lp3039
I6
aa(lp3040
I9
aa(lp3041
I9
aa(lp3042
I7
aa(lp3043
I2
aa(lp3044
I2
aa(lp3045
a(lp3046
a(lp3047
I9
aa(lp3048
I1
aa(lp3049
I4
aa(lp3050
a(lp3051
I4
aa(lp3052
I1
aa(lp3053
I5
aa(lp3054
I1
aa(lp3055
I2
aa(lp3056
I6
aa(lp3057
I1
aa(lp3058
I1
aa(lp3059
a(lp3060
a(lp3061
a(lp3062
I2
aa(lp3063
a(lp3064
I7
aa(lp3065
I1
aa(lp3066
a(lp3067
I7
aa(lp3068
I9
aa(lp3069
I8
aa(lp3070
a(lp3071
I4
aa(lp3072
I7
aa(lp3073
I4
aa(lp3074
a(lp3075
I6
aa(lp3076
a(lp3077
a(lp3078
I4
aa(lp3079
a(lp3080
I9
aa(lp3081
I2
aa(lp3082
I2
aa(lp3083
a(lp3084
a(lp3085
I7
aa(lp3086
I4
aa(lp3087
I3
aa(lp3088
I4
aa(lp3089
a(lp3090
I5
aa(lp3091
a(lp3092
a(lp3093
I4
aa(lp3094
I1
aa(lp3095
I0
aa(lp3096
I1
aa(lp3097
a(lp3098
I8
aa(lp3099
I7
aa(lp3100
a(lp3101
I4
aa(lp3102
I6
aa(lp3103
I4
aa(lp3104
a(lp3105
I7
aa(lp3106
I2
aa(lp3107
I1
aa(lp3108
a(lp3109
I6
aa(lp3110
I1
aa(lp3111
I3
aa(lp3112
a(lp3113
I2
aa(lp3114
a(lp3115
I6
aa(lp3116
I0
aa(lp3117
I7
aa(lp3118
I8
aa(lp3119
a(lp3120
a(lp3121
a(lp3122
I1
aa(lp3123
I1
aa(lp3124
a(lp3125
I1
aa(lp3126
I7
aa(lp3127
I7
aa(lp3128
a(lp3129
a(lp3130
I1
aa(lp3131
I3
aa(lp3132
a(lp3133
a(lp3134
a(lp3135
I0
aa(lp3136
I1
aa(lp3137
I3
aa(lp3138
a(lp3139
I7
aa(lp3140
I5
aa(lp3141
I1
aa(lp3142
I1
aa(lp3143
a(lp3144
a(lp3145
I1
aa(lp3146
I1
aa(lp3147
I8
aa(lp3148
I2
aa(lp3149
I8
aa(lp3150
I1
aa(lp3151
I8
aa(lp3152
I1
aa(lp3153
I4
aa(lp3154
I1
aa(lp3155
I5
aa(lp3156
I8
aa(lp3157
I2
aa(lp3158
I4
aa(lp3159
I0
aa(lp3160
a(lp3161
I2
aa(lp3162
a(lp3163
a(lp3164
I1
aa(lp3165
a(lp3166
I1
aa(lp3167
a(lp3168
I6
aa(lp3169
I6
aa(lp3170
I8
aa(lp3171
a(lp3172
I3
aa(lp3173
I0
aa(lp3174
a(lp3175
a(lp3176
I0
aa(lp3177
I4
aa(lp3178
I1
aa(lp3179
a(lp3180
a(lp3181
a(lp3182
I6
aa(lp3183
a(lp3184
a(lp3185
I5
aa(lp3186
I2
aa(lp3187
I2
aa(lp3188
I3
aa(lp3189
I7
aa(lp3190
a(lp3191
I1
aa(lp3192
a(lp3193
I3
aa(lp3194
I1
aa(lp3195
I1
aa(lp3196
I8
aa(lp3197
a(lp3198
I7
aa(lp3199
I0
aa(lp3200
I2
aa(lp3201
I6
aa(lp3202
I1
aa(lp3203
I2
aa(lp3204
a(lp3205
I4
aa(lp3206
I4
aa(lp3207
a(lp3208
a(lp3209
I9
aa(lp3210
a(lp3211
I4
aa(lp3212
I7
aa(lp3213
I6
aa(lp3214
I1
aa(lp3215
a(lp3216
I1
aa(lp3217
I0
aa(lp3218
a(lp3219
I8
aa(lp3220
I2
aa(lp3221
I1
aa(lp3222
I5
aa(lp3223
a(lp3224
I1
aa(lp3225
a(lp3226
I1
aa(lp3227
I3
aa(lp3228
a(lp3229
a(lp3230
I5
aa(lp3231
I8
aa(lp3232
a(lp3233
a(lp3234
a(lp3235
I4
aa(lp3236
I5
aa(lp3237
I9
aa(lp3238
I4
aa(lp3239
I8
aa(lp3240
I7
aa(lp3241
I1
aa(lp3242
I0
aa(lp3243
I8
aa(lp3244
I1
aa(lp3245
I8
aa(lp3246
I1
aa(lp3247
I9
aa(lp3248
a(lp3249
a(lp3250
a(lp3251
I6
aa(lp3252
a(lp3253
a(lp3254
a(lp3255
I2
aa(lp3256
a(lp3257
I4
aa(lp3258
a(lp3259
I4
aa(lp3260
a(lp3261
a(lp3262
I1
aa(lp3263
a(lp3264
I2
aa(lp3265
I7
aa(lp3266
I2
aa(lp3267
a(lp3268
I1
aa(lp3269
I1
aa(lp3270
a(lp3271
I1
aa(lp3272
I7
aa(lp3273
I2
aa(lp3274
I4
aa(lp3275
a(lp3276
a(lp3277
a(lp3278
I2
aa(lp3279
a(lp3280
I7
aa(lp3281
I6
aa(lp3282
I0
aa(lp3283
I2
aa(lp3284
I4
aa(lp3285
I4
aa(lp3286
I4
aa(lp3287
I6
aa(lp3288
I0
aa(lp3289
I2
aa(lp3290
a(lp3291
I9
aa(lp3292
I5
aa(lp3293
I2
aa(lp3294
a(lp3295
I2
aa(lp3296
I2
aa(lp3297
I6
aa(lp3298
I7
aa(lp3299
a(lp3300
I7
aa(lp3301
a(lp3302
I8
aa(lp3303
I4
aa(lp3304
a(lp3305
I2
aa(lp3306
I7
aa(lp3307
I0
aa(lp3308
I6
aa(lp3309
I8
aa(lp3310
I7
aa(lp3311
a(lp3312
I8
aa(lp3313
a(lp3314
I0
aa(lp3315
I3
aa(lp3316
I7
aa(lp3317
I6
aa(lp3318
a(lp3319
I1
aa(lp3320
a(lp3321
a(lp3322
I2
aa(lp3323
I3
aa(lp3324
a(lp3325
I7
aa(lp3326
I2
aa(lp3327
I4
aa(lp3328
a(lp3329
I3
aa(lp3330
a(lp3331
I4
aa(lp3332
I4
aa(lp3333
I7
aa(lp3334
a(lp3335
a(lp3336
I5
aa(lp3337
I6
aa(lp3338
I4
aa(lp3339
I8
aa(lp3340
I1
aa(lp3341
I8
aa(lp3342
I2
aa(lp3343
a(lp3344
I0
aa(lp3345
a(lp3346
I5
aa(lp3347
a(lp3348
I0
aa(lp3349
I7
aa(lp3350
I6
aa(lp3351
I2
aa(lp3352
I6
aa(lp3353
a(lp3354
I1
aa(lp3355
I6
aa(lp3356
I1
aa(lp3357
I1
aa(lp3358
I1
aa(lp3359
a(lp3360
I6
aa(lp3361
I5
aa(lp3362
I5
aa(lp3363
a(lp3364
I2
aa(lp3365
I2
aa(lp3366
I8
aa(lp3367
I0
aa(lp3368
I0
aa(lp3369
a(lp3370
I6
aa(lp3371
I2
aa(lp3372
I8
aa(lp3373
I7
aa(lp3374
I9
aa(lp3375
I7
aa(lp3376
a(lp3377
I4
aa(lp3378
I2
aa(lp3379
I4
aa(lp3380
a(lp3381
I6
aa(lp3382
I2
aa(lp3383
a(lp3384
a(lp3385
I7
aa(lp3386
I9
aa(lp3387
a(lp3388
a(lp3389
a(lp3390
a(lp3391
I4
aa(lp3392
a(lp3393
I2
aa(lp3394
a(lp3395
a(lp3396
a(lp3397
a(lp3398
I6
aa(lp3399
I1
aa(lp3400
a(lp3401
I2
aa(lp3402
I1
aa(lp3403
a(lp3404
I5
aa(lp3405
a(lp3406
a(lp3407
a(lp3408
a(lp3409
I1
aa(lp3410
a(lp3411
a(lp3412
a(lp3413
I0
aa(lp3414
I4
aa(lp3415
I8
aa(lp3416
I7
aa(lp3417
I4
aa(lp3418
a(lp3419
I7
aa(lp3420
I1
aa(lp3421
I6
aa(lp3422
I9
aa(lp3423
I4
aa(lp3424
I5
aa(lp3425
a(lp3426
a(lp3427
I5
aa(lp3428
I4
aa(lp3429
I6
aa(lp3430
a(lp3431
I0
aa(lp3432
I2
aa(lp3433
I1
aa(lp3434
a(lp3435
I2
aa(lp3436
I8
aa(lp3437
a(lp3438
a(lp3439
I7
aa(lp3440
I1
aa(lp3441
a(lp3442
I3
aa(lp3443
I8
aa(lp3444
a(lp3445
I2
aa(lp3446
I1
aa(lp3447
a(lp3448
a(lp3449
I5
aa(lp3450
a(lp3451
I2
aa(lp3452
I6
aa(lp3453
I4
aa(lp3454
I2
aa(lp3455
I2
aa(lp3456
I0
aa(lp3457
a(lp3458
a(lp3459
a(lp3460
a(lp3461
a(lp3462
I5
aa(lp3463
I6
aa(lp3464
I7
aa(lp3465
I8
aa(lp3466
I3
aa(lp3467
a(lp3468
a(lp3469
I7
aa(lp3470
I0
aa(lp3471
I5
aa(lp3472
a(lp3473
a(lp3474
I6
aa(lp3475
a(lp3476
I8
aa(lp3477
I7
aa(lp3478
I4
aa(lp3479
I1
aa(lp3480
I4
aa(lp3481
a(lp3482
I2
aa(lp3483
I8
aa(lp3484
I2
aa(lp3485
I2
aa(lp3486
I0
aa(lp3487
I5
aa(lp3488
I6
aa(lp3489
I7
aa(lp3490
I8
aa(lp3491
a(lp3492
I1
aa(lp3493
a(lp3494
I2
aa(lp3495
I4
aa(lp3496
I3
aa(lp3497
I6
aa(lp3498
I2
aa(lp3499
I6
aa(lp3500
I5
aa(lp3501
a(lp3502
I4
aa(lp3503
I7
aa(lp3504
a(lp3505
I4
aa(lp3506
I1
aa(lp3507
I1
aa(lp3508
I2
aa(lp3509
a(lp3510
a(lp3511
a(lp3512
I8
aa(lp3513
a(lp3514
a(lp3515
I4
aa(lp3516
I8
aa(lp3517
I2
aa(lp3518
a(lp3519
I7
aa(lp3520
I4
aa(lp3521
a(lp3522
a(lp3523
a(lp3524
a(lp3525
a(lp3526
a(lp3527
a(lp3528
a(lp3529
a(lp3530
I4
aa(lp3531
I2
aa(lp3532
I2
aa(lp3533
a(lp3534
a(lp3535
I6
aa(lp3536
a(lp3537
a(lp3538
I0
aa(lp3539
a(lp3540
a(lp3541
I2
aa(lp3542
a(lp3543
a(lp3544
I6
aa(lp3545
a(lp3546
a(lp3547
a(lp3548
a(lp3549
a(lp3550
a(lp3551
I8
aa(lp3552
I2
aa(lp3553
I6
aa(lp3554
I1
aa(lp3555
I1
aa(lp3556
a(lp3557
I6
aa(lp3558
I6
aa(lp3559
a(lp3560
a(lp3561
a(lp3562
a(lp3563
a(lp3564
I2
aa(lp3565
I9
aa(lp3566
I2
aa(lp3567
a(lp3568
I1
aa(lp3569
a(lp3570
I2
aa(lp3571
I8
aa(lp3572
a(lp3573
I2
aa(lp3574
a(lp3575
I6
aa(lp3576
I2
aa(lp3577
I6
aa(lp3578
I8
aa(lp3579
I1
aa(lp3580
a(lp3581
I0
aa(lp3582
I2
aa(lp3583
a(lp3584
a(lp3585
a(lp3586
a(lp3587
I2
aa(lp3588
a(lp3589
a(lp3590
I7
aa(lp3591
a(lp3592
a(lp3593
I5
aa(lp3594
I6
aa(lp3595
I2
aa(lp3596
I2
aa(lp3597
I0
aa(lp3598
a(lp3599
I4
aa(lp3600
I8
aa(lp3601
I2
aa(lp3602
I7
aa(lp3603
I4
aa(lp3604
I8
aa(lp3605
I5
aa(lp3606
I2
aa(lp3607
I1
aa(lp3608
I1
aa(lp3609
I1
aa(lp3610
I7
aa(lp3611
I6
aa(lp3612
I9
aa(lp3613
I2
aa(lp3614
a(lp3615
I6
aa(lp3616
I2
aa(lp3617
I4
aa(lp3618
I7
aa(lp3619
I9
aa(lp3620
I1
aa(lp3621
I2
aa(lp3622
a(lp3623
a(lp3624
I7
aa(lp3625
a(lp3626
I5
aa(lp3627
a(lp3628
I6
aa(lp3629
I4
aa(lp3630
I4
aa(lp3631
I2
aa(lp3632
I4
aa(lp3633
a(lp3634
a(lp3635
a(lp3636
a(lp3637
I4
aa(lp3638
I6
aa(lp3639
I4
aa(lp3640
I1
aa(lp3641
I9
aa(lp3642
I1
aa(lp3643
I5
aa(lp3644
I6
aa(lp3645
I2
aa(lp3646
I6
aa(lp3647
I0
aa(lp3648
I3
aa(lp3649
I2
aa(lp3650
I8
aa(lp3651
I5
aa(lp3652
a(lp3653
a(lp3654
a(lp3655
I7
aa(lp3656
a(lp3657
a(lp3658
I8
aa(lp3659
a(lp3660
a(lp3661
a(lp3662
I2
aa(lp3663
I1
aa(lp3664
I1
aa(lp3665
a(lp3666
a(lp3667
I9
aa(lp3668
a(lp3669
I1
aa(lp3670
a(lp3671
I1
aa(lp3672
I7
aa(lp3673
I7
aa(lp3674
I8
aa(lp3675
I6
aa(lp3676
I0
aa(lp3677
a(lp3678
I1
aa(lp3679
I1
aa(lp3680
a(lp3681
I1
aa(lp3682
I2
aa(lp3683
a(lp3684
I7
aa(lp3685
I4
aa(lp3686
I6
aa(lp3687
I8
aa(lp3688
I9
aa(lp3689
a(lp3690
I6
aa(lp3691
I1
aa(lp3692
a(lp3693
I0
aa(lp3694
I4
aa(lp3695
a(lp3696
I2
aa(lp3697
a(lp3698
a(lp3699
I7
aa(lp3700
a(lp3701
a(lp3702
a(lp3703
I2
aa(lp3704
I6
aa(lp3705
I2
aa(lp3706
I2
aa(lp3707
I4
aa(lp3708
I0
aa(lp3709
I2
aa(lp3710
a(lp3711
a(lp3712
I2
aa(lp3713
I6
aa(lp3714
I9
aa(lp3715
I6
aa(lp3716
I1
aa(lp3717
I8
aa(lp3718
I2
aa(lp3719
I1
aa(lp3720
I0
aa(lp3721
I2
aa(lp3722
a(lp3723
I5
aa(lp3724
I5
aa(lp3725
a(lp3726
I4
aa(lp3727
I8
aa(lp3728
I2
aa(lp3729
a(lp3730
I1
aa(lp3731
I7
aa(lp3732
a(lp3733
I0
aa(lp3734
I1
aa(lp3735
I4
aa(lp3736
I2
aa(lp3737
I2
aa(lp3738
I8
aa(lp3739
I6
aa(lp3740
a(lp3741
I7
aa(lp3742
a(lp3743
I1
aa(lp3744
I7
aa(lp3745
a(lp3746
I9
aa(lp3747
I6
aa(lp3748
a(lp3749
I4
aa(lp3750
I9
aa(lp3751
I6
aa(lp3752
a(lp3753
a(lp3754
I7
aa(lp3755
a(lp3756
a(lp3757
I4
aa(lp3758
a(lp3759
I1
aa(lp3760
I3
aa(lp3761
I8
aa(lp3762
a(lp3763
a(lp3764
I4
aa(lp3765
I9
aa(lp3766
a(lp3767
a(lp3768
a(lp3769
a(lp3770
I4
aa(lp3771
I2
aa(lp3772
a(lp3773
I2
aa(lp3774
I4
aa(lp3775
I5
aa(lp3776
a(lp3777
a(lp3778
a(lp3779
I4
aa(lp3780
I4
aa(lp3781
I7
aa(lp3782
a(lp3783
I2
aa(lp3784
I3
aa(lp3785
I3
aa(lp3786
a(lp3787
I9
aa(lp3788
I3
aa(lp3789
I7
aa(lp3790
a(lp3791
I7
aa(lp3792
I2
aa(lp3793
I9
aa(lp3794
I1
aa(lp3795
a(lp3796
I6
aa(lp3797
a(lp3798
I1
aa(lp3799
I5
aa(lp3800
a(lp3801
a(lp3802
I8
aa(lp3803
I9
aa(lp3804
I0
aa(lp3805
I1
aa(lp3806
I7
aa(lp3807
I3
aa(lp3808
a(lp3809
I4
aa(lp3810
I6
aa(lp3811
a(lp3812
a(lp3813
I7
aa(lp3814
I4
aa(lp3815
I8
aa(lp3816
I2
aa(lp3817
I7
aa(lp3818
a(lp3819
I3
aa(lp3820
a(lp3821
I7
aa(lp3822
a(lp3823
I6
aa(lp3824
a(lp3825
I2
aa(lp3826
I1
aa(lp3827
I2
aa(lp3828
a(lp3829
a(lp3830
I4
aa(lp3831
I1
aa(lp3832
I1
aa(lp3833
I8
aa(lp3834
I1
aa(lp3835
a(lp3836
I3
aa(lp3837
I7
aa(lp3838
I8
aa(lp3839
I1
aa(lp3840
I4
aa(lp3841
I1
aa(lp3842
a(lp3843
I1
aa(lp3844
a(lp3845
a(lp3846
I4
aa(lp3847
I0
aa(lp3848
a(lp3849
I6
aa(lp3850
I6
aa(lp3851
I1
aa(lp3852
a(lp3853
a(lp3854
a(lp3855
I8
aa(lp3856
a(lp3857
I2
aa(lp3858
a(lp3859
I6
aa(lp3860
I9
aa(lp3861
a(lp3862
I2
aa(lp3863
I7
aa(lp3864
I4
aa(lp3865
a(lp3866
a(lp3867
a(lp3868
a(lp3869
I6
aa(lp3870
a(lp3871
I7
aa(lp3872
I9
aa(lp3873
I2
aa(lp3874
a(lp3875
I9
aa(lp3876
I7
aa(lp3877
I9
aa(lp3878
I5
aa(lp3879
a(lp3880
I4
aa(lp3881
a(lp3882
a(lp3883
a(lp3884
I9
aa(lp3885
a(lp3886
a(lp3887
I7
aa(lp3888
I2
aa(lp3889
I1
aa(lp3890
I1
aa(lp3891
a(lp3892
a(lp3893
I1
aa(lp3894
a(lp3895
a(lp3896
a(lp3897
I6
aa(lp3898
I1
aa(lp3899
I7
aa(lp3900
I2
aa(lp3901
I2
aa(lp3902
I9
aa(lp3903
a(lp3904
I4
aa(lp3905
a(lp3906
I6
aa(lp3907
I8
aa(lp3908
a(lp3909
a(lp3910
I0
aa(lp3911
I4
aa(lp3912
I1
aa(lp3913
I1
aa(lp3914
I5
aa(lp3915
I6
aa(lp3916
I8
aa(lp3917
a(lp3918
I2
aa(lp3919
a(lp3920
I6
aa(lp3921
a(lp3922
I4
aa(lp3923
I4
aa(lp3924
I7
aa(lp3925
a(lp3926
I7
aa(lp3927
I2
aa(lp3928
I6
aa(lp3929
I1
aa(lp3930
a(lp3931
a(lp3932
I2
aa(lp3933
I7
aa(lp3934
I6
aa(lp3935
I8
aa(lp3936
a(lp3937
I3
aa(lp3938
a(lp3939
I4
aa(lp3940
I0
aa(lp3941
I1
aa(lp3942
I2
aa(lp3943
I2
aa(lp3944
I6
aa(lp3945
I0
aa(lp3946
a(lp3947
a(lp3948
a(lp3949
a(lp3950
I8
aa(lp3951
a(lp3952
a(lp3953
a(lp3954
a(lp3955
I6
aa(lp3956
I1
aa(lp3957
I6
aa(lp3958
I6
aa(lp3959
a(lp3960
a(lp3961
a(lp3962
a(lp3963
I2
aa(lp3964
a(lp3965
I2
aa(lp3966
I6
aa(lp3967
I7
aa(lp3968
I6
aa(lp3969
I4
aa(lp3970
a(lp3971
I2
aa(lp3972
a(lp3973
I6
aa(lp3974
I2
aa(lp3975
I3
aa(lp3976
I2
aa(lp3977
a(lp3978
I2
aa(lp3979
a(lp3980
I3
aa(lp3981
I8
aa(lp3982
a(lp3983
I8
aa(lp3984
I0
aa(lp3985
I4
aa(lp3986
I2
aa(lp3987
I1
aa(lp3988
a(lp3989
a(lp3990
I9
aa(lp3991
I7
aa(lp3992
I4
aa(lp3993
I1
aa(lp3994
a(lp3995
a(lp3996
a(lp3997
I0
aa(lp3998
I1
aa(lp3999
a(lp4000
I8
aa(lp4001
I4
aa(lp4002
I6
aa(lp4003
I4
aa(lp4004
I2
aa(lp4005
I0
aa(lp4006
a(lp4007
I9
aa(lp4008
a(lp4009
I4
aa(lp4010
a(lp4011
I8
aa(lp4012
a(lp4013
a(lp4014
I8
aa(lp4015
I8
aa(lp4016
I0
aa(lp4017
I3
aa(lp4018
I0
aa(lp4019
I3
aa(lp4020
I3
aa(lp4021
a(lp4022
I1
aa(lp4023
I4
aa(lp4024
I7
aa(lp4025
I6
aa(lp4026
I1
aa(lp4027
I6
aa(lp4028
I6
aa(lp4029
I7
aa(lp4030
I6
aa(lp4031
I1
aa(lp4032
a(lp4033
I5
aa(lp4034
I6
aa(lp4035
I2
aa(lp4036
I4
aa(lp4037
I4
aa(lp4038
I7
aa(lp4039
I5
aa(lp4040
a(lp4041
I2
aa(lp4042
a(lp4043
I7
aa(lp4044
I9
aa(lp4045
I4
aa(lp4046
I3
aa(lp4047
I2
aa(lp4048
a(lp4049
I2
aa(lp4050
I2
aa(lp4051
I5
aa(lp4052
I2
aa(lp4053
I1
aa(lp4054
I2
aa(lp4055
I2
aa(lp4056
a(lp4057
I8
aa(lp4058
I0
aa(lp4059
a(lp4060
I5
aa(lp4061
I6
aa(lp4062
I6
aa(lp4063
I3
aa(lp4064
I2
aa(lp4065
a(lp4066
I9
aa(lp4067
I7
aa(lp4068
I0
aa(lp4069
a(lp4070
I2
aa(lp4071
I4
aa(lp4072
a(lp4073
I2
aa(lp4074
I7
aa(lp4075
I1
aa(lp4076
I5
aa(lp4077
a(lp4078
I0
aa(lp4079
a(lp4080
I4
aa(lp4081
I5
aa(lp4082
I2
aa(lp4083
I1
aa(lp4084
I6
aa(lp4085
I3
aa(lp4086
I8
aa(lp4087
a(lp4088
a(lp4089
I4
aa(lp4090
I4
aa(lp4091
I6
aa(lp4092
I7
aa(lp4093
I1
aa(lp4094
a(lp4095
I2
aa(lp4096
I5
aa(lp4097
I1
aa(lp4098
a(lp4099
a(lp4100
I2
aa(lp4101
I2
aa(lp4102
a(lp4103
I5
aa(lp4104
a(lp4105
I1
aa(lp4106
I5
aa(lp4107
I1
aa(lp4108
I7
aa(lp4109
a(lp4110
I6
aa(lp4111
I8
aa(lp4112
I7
aa(lp4113
a(lp4114
a(lp4115
I8
aa(lp4116
I6
aa(lp4117
I1
aa(lp4118
a(lp4119
I1
aa(lp4120
a(lp4121
I2
aa(lp4122
a(lp4123
I3
aa(lp4124
I8
aa(lp4125
a(lp4126
I8
aa(lp4127
a(lp4128
I1
aa(lp4129
a(lp4130
I7
aa(lp4131
I9
aa(lp4132
I5
aa(lp4133
I3
aa(lp4134
a(lp4135
a(lp4136
I4
aa(lp4137
a(lp4138
I2
aa(lp4139
I6
aa(lp4140
I1
aa(lp4141
I4
aa(lp4142
I1
aa(lp4143
a(lp4144
I4
aa(lp4145
a(lp4146
a(lp4147
a(lp4148
I8
aa(lp4149
I7
aa(lp4150
I0
aa(lp4151
a(lp4152
a(lp4153
I8
aa(lp4154
I5
aa(lp4155
I1
aa(lp4156
I4
aa(lp4157
I7
aa(lp4158
a(lp4159
I4
aa(lp4160
a(lp4161
I4
aa(lp4162
a(lp4163
a(lp4164
a(lp4165
I5
aa(lp4166
I2
aa(lp4167
I9
aa(lp4168
I4
aa(lp4169
I3
aa(lp4170
a(lp4171
I7
aa(lp4172
a(lp4173
a(lp4174
I3
aa(lp4175
I9
aa(lp4176
I1
aa(lp4177
I7
aa(lp4178
a(lp4179
I2
aa(lp4180
I4
aa(lp4181
a(lp4182
a(lp4183
I7
aa(lp4184
a(lp4185
a(lp4186
a(lp4187
I1
aa(lp4188
I1
aa(lp4189
I4
aa(lp4190
I2
aa(lp4191
a(lp4192
a(lp4193
I4
aa(lp4194
a(lp4195
I8
aa(lp4196
I1
aa(lp4197
I4
aa(lp4198
I2
aa(lp4199
I8
aa(lp4200
I4
aa(lp4201
I4
aa(lp4202
a(lp4203
a(lp4204
a(lp4205
a(lp4206
a(lp4207
I1
aa(lp4208
I8
aa(lp4209
I9
aa(lp4210
I0
aa(lp4211
a(lp4212
I2
aa(lp4213
a(lp4214
a(lp4215
a(lp4216
I0
aa(lp4217
a(lp4218
I8
aa(lp4219
I9
aa(lp4220
I2
aa(lp4221
I7
aa(lp4222
I4
aa(lp4223
I1
aa(lp4224
I5
aa(lp4225
a(lp4226
I1
aa(lp4227
a(lp4228
I7
aa(lp4229
a(lp4230
I8
aa(lp4231
I1
aa(lp4232
I5
aa(lp4233
I8
aa(lp4234
I0
aa(lp4235
a(lp4236
I2
aa(lp4237
a(lp4238
I2
aa(lp4239
a(lp4240
I2
aa(lp4241
I2
aa(lp4242
I1
aa(lp4243
a(lp4244
I5
aa(lp4245
I6
aa(lp4246
I1
aa(lp4247
I6
aa(lp4248
a(lp4249
I7
aa(lp4250
a(lp4251
a(lp4252
a(lp4253
a(lp4254
a(lp4255
a(lp4256
I2
aa(lp4257
I1
aa(lp4258
I3
aa(lp4259
I1
aa(lp4260
a(lp4261
a(lp4262
I8
aa(lp4263
I7
aa(lp4264
I5
aa(lp4265
a(lp4266
I8
aa(lp4267
I2
aa(lp4268
a(lp4269
I1
aa(lp4270
a(lp4271
I4
aa(lp4272
I2
aa(lp4273
I4
aa(lp4274
I1
aa(lp4275
I1
aa(lp4276
I2
aa(lp4277
I5
aa(lp4278
I5
aa(lp4279
I3
aa(lp4280
a(lp4281
I6
aa(lp4282
a(lp4283
I7
aa(lp4284
I7
aa(lp4285
I8
aa(lp4286
a(lp4287
I1
aa(lp4288
I1
aa(lp4289
I1
aa(lp4290
I8
aa(lp4291
a(lp4292
a(lp4293
I8
aa(lp4294
I5
aa(lp4295
I1
aa(lp4296
a(lp4297
I8
aa(lp4298
a(lp4299
I4
aa(lp4300
a(lp4301
I9
aa(lp4302
I2
aa(lp4303
a(lp4304
a(lp4305
a(lp4306
I1
aa(lp4307
I6
aa(lp4308
I1
aa(lp4309
a(lp4310
I1
aa(lp4311
I1
aa(lp4312
I1
aa(lp4313
a(lp4314
I2
aa(lp4315
a(lp4316
I9
aa(lp4317
I2
aa(lp4318
I7
aa(lp4319
I3
aa(lp4320
I6
aa(lp4321
a(lp4322
I1
aa(lp4323
I2
aa(lp4324
I3
aa(lp4325
a(lp4326
I1
aa(lp4327
I0
aa(lp4328
I2
aa(lp4329
a(lp4330
a(lp4331
I1
aa(lp4332
I5
aa(lp4333
a(lp4334
I3
aa(lp4335
a(lp4336
I7
aa(lp4337
I9
aa(lp4338
I0
aa(lp4339
I0
aa(lp4340
I5
aa(lp4341
I8
aa(lp4342
I8
aa.